target datalayout = "e-m:e-p270:32:32-p271:32:32-p272:64:64-i64:64-i128:128-f80:128-n8:16:32:64-S128"
target triple = "x86_64-pc-linux-gnu"

%class.JSON = type <{ ptr, ptr, ptr, ptr, ptr, i32, i32, i32, i8, i8, [2 x i8] }>

@_ZTV4JSON = linkonce_odr hidden unnamed_addr constant { [3 x ptr] } { [3 x ptr] [ptr null, ptr null, ptr @__cxa_pure_virtual] }, comdat, align 8

; Function Attrs: mustprogress nounwind uwtable
define hidden void @_ZN4JSONC2EPKcbP12outputStream(ptr noundef nonnull align 8 dereferenceable(54) %0, ptr noundef %1, i1 noundef zeroext %2, ptr noundef %3) unnamed_addr #1 align 2 {
  %5 = alloca ptr, align 8
  %6 = alloca ptr, align 8
  %7 = alloca i8, align 1
  %8 = alloca ptr, align 8
  store ptr %0, ptr %5, align 8
  store ptr %1, ptr %6, align 8
  %9 = zext i1 %2 to i8
  store i8 %9, ptr %7, align 1
  store ptr %3, ptr %8, align 8
  %10 = load ptr, ptr %5, align 8
  store ptr getelementptr inbounds inrange(-16, 8) ({ [3 x ptr] }, ptr @_ZTV4JSON, i32 0, i32 0, i32 2), ptr %10, align 8
  %11 = getelementptr inbounds %class.JSON, ptr %10, i32 0, i32 1
  %12 = load ptr, ptr %8, align 8
  store ptr %12, ptr %11, align 8
  %13 = getelementptr inbounds %class.JSON, ptr %10, i32 0, i32 2
  %14 = load ptr, ptr %6, align 8
  store ptr %14, ptr %13, align 8
  %15 = getelementptr inbounds %class.JSON, ptr %10, i32 0, i32 3
  %16 = load ptr, ptr %6, align 8
  store ptr %16, ptr %15, align 8
  %17 = getelementptr inbounds %class.JSON, ptr %10, i32 0, i32 4
  %18 = load ptr, ptr %6, align 8
  store ptr %18, ptr %17, align 8
  %19 = getelementptr inbounds %class.JSON, ptr %10, i32 0, i32 5
  store i32 0, ptr %19, align 8
  %20 = getelementptr inbounds %class.JSON, ptr %10, i32 0, i32 6
  store i32 1, ptr %20, align 4
  %21 = getelementptr inbounds %class.JSON, ptr %10, i32 0, i32 7
  store i32 0, ptr %21, align 8
  %22 = getelementptr inbounds %class.JSON, ptr %10, i32 0, i32 8
  %23 = load i8, ptr %7, align 1
  %24 = trunc i8 %23 to i1
  %25 = zext i1 %24 to i8
  store i8 %25, ptr %22, align 4
  %26 = getelementptr inbounds %class.JSON, ptr %10, i32 0, i32 9
  store i8 1, ptr %26, align 1
  ret void
}