; Function Attrs: mustprogress nofree norecurse nosync nounwind willreturn memory(argmem: write) uwtable
define hidden void @_ZN4JSONC2EPKcbP12outputStream(ptr nocapture noundef nonnull writeonly align 8 dereferenceable(54) %0, ptr noundef %1, i1 noundef zeroext %2, ptr noundef %3) unnamed_addr #0 align 2 {
  %5 = zext i1 %2 to i8
  store ptr getelementptr inbounds inrange(-16, 8) (i8, ptr @_ZTV4JSON, i64 16), ptr %0, align 8
  %6 = getelementptr inbounds i8, ptr %0, i64 8
  store ptr %3, ptr %6, align 8
  %7 = getelementptr inbounds i8, ptr %0, i64 16
  store ptr %1, ptr %7, align 8
  %8 = getelementptr inbounds i8, ptr %0, i64 24
  store ptr %1, ptr %8, align 8
  %9 = getelementptr inbounds i8, ptr %0, i64 32
  store ptr %1, ptr %9, align 8
  %10 = getelementptr inbounds i8, ptr %0, i64 40
  store i32 0, ptr %10, align 8
  %11 = getelementptr inbounds i8, ptr %0, i64 44
  store i32 1, ptr %11, align 4
  %12 = getelementptr inbounds i8, ptr %0, i64 48
  store i32 0, ptr %12, align 8
  %13 = getelementptr inbounds i8, ptr %0, i64 52
  store i8 %5, ptr %13, align 4
  %14 = getelementptr inbounds i8, ptr %0, i64 53
  store i8 1, ptr %14, align 1
  ret void
}